; Function Attrs: null_pointer_is_valid sspstrong uwtable
define internal i32 @ieee802154_set_mle_key(ptr noundef %0, ptr noundef %1, ptr noundef %2, ptr noundef %3) #0 {
  %5 = load ptr, ptr @mle_key_hash_handlers, align 8
  %6 = getelementptr inbounds nuw i8, ptr %3, i64 12
  %7 = load i32, ptr %6, align 4
  %8 = tail call ptr @wmem_tree_lookup32(ptr noundef %5, i32 noundef %7)
  %.not = icmp eq ptr %8, null
  br i1 %.not, label %11, label %9

9:                                                ; preds = %4
  %10 = tail call i32 %8(ptr noundef %0, ptr noundef %1, ptr noundef %2, ptr noundef %3)
  br label %20

11:                                               ; preds = %4
  %12 = getelementptr inbounds nuw i8, ptr %0, i64 104
  %13 = load i8, ptr %12, align 8
  %14 = zext i8 %13 to i32
  %15 = getelementptr inbounds nuw i8, ptr %3, i64 8
  %16 = load i32, ptr %15, align 8
  %17 = icmp eq i32 %16, %14
  br i1 %17, label %18, label %20

18:                                               ; preds = %11
  %19 = getelementptr inbounds nuw i8, ptr %3, i64 16
  tail call void @llvm.memcpy.p0.p0.i64(ptr noundef align 1 dereferenceable(16) %1, ptr noundef nonnull align 1 dereferenceable(16) %19, i64 noundef 16, i1 noundef false) #11
  br label %20

20:                                               ; preds = %11, %18, %9
  %.0 = phi i32 [ %10, %9 ], [ 1, %18 ], [ 0, %11 ]
  ret i32 %.0
}